target datalayout = "e-m:e-p270:32:32-p271:32:32-p272:64:64-i64:64-i128:128-f80:128-n8:16:32:64-S128"
target triple = "x86_64-pc-linux-gnu"

; Function Attrs: nounwind uwtable
define internal zeroext i16 @FomLabV4ToLabV2(i16 noundef zeroext %0) #0 {
  %2 = alloca i16, align 2
  store i16 %0, ptr %2, align 2
  %3 = load i16, ptr %2, align 2
  %4 = zext i16 %3 to i32
  %5 = shl i32 %4, 8
  %6 = add nsw i32 %5, 128
  %7 = sdiv i32 %6, 257
  %8 = trunc i32 %7 to i16
  ret i16 %8
}

; Function Attrs: nounwind uwtable
define internal ptr @PackALabV2_8(ptr noundef %0, ptr noundef %1, ptr noundef %2, i32 noundef %3) #0 {
  %5 = alloca ptr, align 8
  %6 = alloca ptr, align 8
  %7 = alloca ptr, align 8
  %8 = alloca i32, align 4
  store ptr %0, ptr %5, align 8
  store ptr %1, ptr %6, align 8
  store ptr %2, ptr %7, align 8
  store i32 %3, ptr %8, align 4
  %9 = load ptr, ptr %7, align 8
  %10 = getelementptr inbounds i8, ptr %9, i32 1
  store ptr %10, ptr %7, align 8
  %11 = load ptr, ptr %6, align 8
  %12 = getelementptr inbounds i16, ptr %11, i64 0
  %13 = load i16, ptr %12, align 2
  %14 = call zeroext i16 @FomLabV4ToLabV2(i16 noundef zeroext %13)
  %15 = zext i16 %14 to i32
  %16 = mul i32 %15, 65281
  %17 = add i32 %16, 8388608
  %18 = lshr i32 %17, 24
  %19 = and i32 %18, 255
  %20 = trunc i32 %19 to i8
  %21 = load ptr, ptr %7, align 8
  %22 = getelementptr inbounds i8, ptr %21, i32 1
  store ptr %22, ptr %7, align 8
  store i8 %20, ptr %21, align 1
  %23 = load ptr, ptr %6, align 8
  %24 = getelementptr inbounds i16, ptr %23, i64 1
  %25 = load i16, ptr %24, align 2
  %26 = call zeroext i16 @FomLabV4ToLabV2(i16 noundef zeroext %25)
  %27 = zext i16 %26 to i32
  %28 = mul i32 %27, 65281
  %29 = add i32 %28, 8388608
  %30 = lshr i32 %29, 24
  %31 = and i32 %30, 255
  %32 = trunc i32 %31 to i8
  %33 = load ptr, ptr %7, align 8
  %34 = getelementptr inbounds i8, ptr %33, i32 1
  store ptr %34, ptr %7, align 8
  store i8 %32, ptr %33, align 1
  %35 = load ptr, ptr %6, align 8
  %36 = getelementptr inbounds i16, ptr %35, i64 2
  %37 = load i16, ptr %36, align 2
  %38 = call zeroext i16 @FomLabV4ToLabV2(i16 noundef zeroext %37)
  %39 = zext i16 %38 to i32
  %40 = mul i32 %39, 65281
  %41 = add i32 %40, 8388608
  %42 = lshr i32 %41, 24
  %43 = and i32 %42, 255
  %44 = trunc i32 %43 to i8
  %45 = load ptr, ptr %7, align 8
  %46 = getelementptr inbounds i8, ptr %45, i32 1
  store ptr %46, ptr %7, align 8
  store i8 %44, ptr %45, align 1
  %47 = load ptr, ptr %7, align 8
  ret ptr %47
}