; Function Attrs: mustprogress nofree norecurse nosync nounwind willreturn memory(argmem: readwrite) uwtable
define internal nonnull ptr @PackALabV2_8(ptr nocapture readnone %0, ptr nocapture noundef readonly %1, ptr noundef writeonly %2, i32 %3) #3 {
  %5 = getelementptr inbounds i8, ptr %2, i64 1
  %6 = load i16, ptr %1, align 2
  %7 = zext i16 %6 to i32
  %8 = shl nuw nsw i32 %7, 8
  %9 = or disjoint i32 %8, 128
  %10 = udiv i32 %9, 257
  %11 = mul nuw i32 %10, 65281
  %12 = add nuw i32 %11, 8388608
  %13 = lshr i32 %12, 24
  %14 = trunc nuw i32 %13 to i8
  %15 = getelementptr inbounds i8, ptr %2, i64 2
  store i8 %14, ptr %5, align 1
  %16 = getelementptr inbounds i8, ptr %1, i64 2
  %17 = load i16, ptr %16, align 2
  %18 = zext i16 %17 to i32
  %19 = shl nuw nsw i32 %18, 8
  %20 = or disjoint i32 %19, 128
  %21 = udiv i32 %20, 257
  %22 = mul nuw i32 %21, 65281
  %23 = add nuw i32 %22, 8388608
  %24 = lshr i32 %23, 24
  %25 = trunc nuw i32 %24 to i8
  %26 = getelementptr inbounds i8, ptr %2, i64 3
  store i8 %25, ptr %15, align 1
  %27 = getelementptr inbounds i8, ptr %1, i64 4
  %28 = load i16, ptr %27, align 2
  %29 = zext i16 %28 to i32
  %30 = shl nuw nsw i32 %29, 8
  %31 = or disjoint i32 %30, 128
  %32 = udiv i32 %31, 257
  %33 = mul nuw i32 %32, 65281
  %34 = add nuw i32 %33, 8388608
  %35 = lshr i32 %34, 24
  %36 = trunc nuw i32 %35 to i8
  %37 = getelementptr inbounds i8, ptr %2, i64 4
  store i8 %36, ptr %26, align 1
  ret ptr %37
}